target datalayout = "e-m:e-p270:32:32-p271:32:32-p272:64:64-i64:64-i128:128-f80:128-n8:16:32:64-S128"
target triple = "x86_64-pc-linux-gnu"

%struct.mbedtls_md_info_t = type { ptr, i32, i8, i8 }
%struct.mbedtls_md_context_t = type { ptr, ptr, ptr }

; Function Attrs: mustprogress uwtable
define hidden i32 @mbedtls_md_setup(ptr noundef %0, ptr noundef %1, i32 noundef %2) #1 {
  %4 = alloca i32, align 4
  %5 = alloca ptr, align 8
  %6 = alloca ptr, align 8
  %7 = alloca i32, align 4
  store ptr %0, ptr %5, align 8, !tbaa !10
  store ptr %1, ptr %6, align 8, !tbaa !20
  store i32 %2, ptr %7, align 4, !tbaa !21
  %8 = load ptr, ptr %6, align 8, !tbaa !20
  %9 = icmp eq ptr %8, null
  br i1 %9, label %13, label %10

10:                                               ; preds = %3
  %11 = load ptr, ptr %5, align 8, !tbaa !10
  %12 = icmp eq ptr %11, null
  br i1 %12, label %13, label %14

13:                                               ; preds = %10, %3
  store i32 -20736, ptr %4, align 4
  br label %90

14:                                               ; preds = %10
  %15 = load ptr, ptr %6, align 8, !tbaa !20
  %16 = load ptr, ptr %5, align 8, !tbaa !10
  %17 = getelementptr inbounds nuw %struct.mbedtls_md_context_t, ptr %16, i32 0, i32 0
  store ptr %15, ptr %17, align 8, !tbaa !12
  %18 = load ptr, ptr %5, align 8, !tbaa !10
  %19 = getelementptr inbounds nuw %struct.mbedtls_md_context_t, ptr %18, i32 0, i32 1
  store ptr null, ptr %19, align 8, !tbaa !15
  %20 = load ptr, ptr %5, align 8, !tbaa !10
  %21 = getelementptr inbounds nuw %struct.mbedtls_md_context_t, ptr %20, i32 0, i32 2
  store ptr null, ptr %21, align 8, !tbaa !18
  %22 = load ptr, ptr %6, align 8, !tbaa !20
  %23 = getelementptr inbounds nuw %struct.mbedtls_md_info_t, ptr %22, i32 0, i32 1
  %24 = load i32, ptr %23, align 8, !tbaa !16
  switch i32 %24, label %70 [
    i32 2, label %25
    i32 3, label %40
    i32 4, label %55
  ]

25:                                               ; preds = %14
  br label %26

26:                                               ; preds = %25
  %27 = call noalias ptr @calloc(i64 noundef 1, i64 noundef 92) #10
  %28 = load ptr, ptr %5, align 8, !tbaa !10
  %29 = getelementptr inbounds nuw %struct.mbedtls_md_context_t, ptr %28, i32 0, i32 1
  store ptr %27, ptr %29, align 8, !tbaa !15
  %30 = load ptr, ptr %5, align 8, !tbaa !10
  %31 = getelementptr inbounds nuw %struct.mbedtls_md_context_t, ptr %30, i32 0, i32 1
  %32 = load ptr, ptr %31, align 8, !tbaa !15
  %33 = icmp eq ptr %32, null
  br i1 %33, label %34, label %35

34:                                               ; preds = %26
  store i32 -20864, ptr %4, align 4
  br label %90

35:                                               ; preds = %26
  %36 = load ptr, ptr %5, align 8, !tbaa !10
  %37 = getelementptr inbounds nuw %struct.mbedtls_md_context_t, ptr %36, i32 0, i32 1
  %38 = load ptr, ptr %37, align 8, !tbaa !15
  call void @mbedtls_sha1_init(ptr noundef %38)
  br label %39

39:                                               ; preds = %35
  br label %71

40:                                               ; preds = %14
  br label %41

41:                                               ; preds = %40
  %42 = call noalias ptr @calloc(i64 noundef 1, i64 noundef 108) #10
  %43 = load ptr, ptr %5, align 8, !tbaa !10
  %44 = getelementptr inbounds nuw %struct.mbedtls_md_context_t, ptr %43, i32 0, i32 1
  store ptr %42, ptr %44, align 8, !tbaa !15
  %45 = load ptr, ptr %5, align 8, !tbaa !10
  %46 = getelementptr inbounds nuw %struct.mbedtls_md_context_t, ptr %45, i32 0, i32 1
  %47 = load ptr, ptr %46, align 8, !tbaa !15
  %48 = icmp eq ptr %47, null
  br i1 %48, label %49, label %50

49:                                               ; preds = %41
  store i32 -20864, ptr %4, align 4
  br label %90

50:                                               ; preds = %41
  %51 = load ptr, ptr %5, align 8, !tbaa !10
  %52 = getelementptr inbounds nuw %struct.mbedtls_md_context_t, ptr %51, i32 0, i32 1
  %53 = load ptr, ptr %52, align 8, !tbaa !15
  call void @mbedtls_sha256_init(ptr noundef %53)
  br label %54

54:                                               ; preds = %50
  br label %71

55:                                               ; preds = %14
  br label %56

56:                                               ; preds = %55
  %57 = call noalias ptr @calloc(i64 noundef 1, i64 noundef 108) #10
  %58 = load ptr, ptr %5, align 8, !tbaa !10
  %59 = getelementptr inbounds nuw %struct.mbedtls_md_context_t, ptr %58, i32 0, i32 1
  store ptr %57, ptr %59, align 8, !tbaa !15
  %60 = load ptr, ptr %5, align 8, !tbaa !10
  %61 = getelementptr inbounds nuw %struct.mbedtls_md_context_t, ptr %60, i32 0, i32 1
  %62 = load ptr, ptr %61, align 8, !tbaa !15
  %63 = icmp eq ptr %62, null
  br i1 %63, label %64, label %65

64:                                               ; preds = %56
  store i32 -20864, ptr %4, align 4
  br label %90

65:                                               ; preds = %56
  %66 = load ptr, ptr %5, align 8, !tbaa !10
  %67 = getelementptr inbounds nuw %struct.mbedtls_md_context_t, ptr %66, i32 0, i32 1
  %68 = load ptr, ptr %67, align 8, !tbaa !15
  call void @mbedtls_sha256_init(ptr noundef %68)
  br label %69

69:                                               ; preds = %65
  br label %71

70:                                               ; preds = %14
  store i32 -20736, ptr %4, align 4
  br label %90

71:                                               ; preds = %69, %54, %39
  %72 = load i32, ptr %7, align 4, !tbaa !21
  %73 = icmp ne i32 %72, 0
  br i1 %73, label %74, label %89

74:                                               ; preds = %71
  %75 = load ptr, ptr %6, align 8, !tbaa !20
  %76 = getelementptr inbounds nuw %struct.mbedtls_md_info_t, ptr %75, i32 0, i32 3
  %77 = load i8, ptr %76, align 1, !tbaa !19
  %78 = zext i8 %77 to i64
  %79 = call noalias ptr @calloc(i64 noundef 2, i64 noundef %78) #10
  %80 = load ptr, ptr %5, align 8, !tbaa !10
  %81 = getelementptr inbounds nuw %struct.mbedtls_md_context_t, ptr %80, i32 0, i32 2
  store ptr %79, ptr %81, align 8, !tbaa !18
  %82 = load ptr, ptr %5, align 8, !tbaa !10
  %83 = getelementptr inbounds nuw %struct.mbedtls_md_context_t, ptr %82, i32 0, i32 2
  %84 = load ptr, ptr %83, align 8, !tbaa !18
  %85 = icmp eq ptr %84, null
  br i1 %85, label %86, label %88

86:                                               ; preds = %74
  %87 = load ptr, ptr %5, align 8, !tbaa !10
  call void @mbedtls_md_free(ptr noundef %87)
  store i32 -20864, ptr %4, align 4
  br label %90

88:                                               ; preds = %74
  br label %89

89:                                               ; preds = %88, %71
  store i32 0, ptr %4, align 4
  br label %90

90:                                               ; preds = %89, %86, %70, %64, %49, %34, %13
  %91 = load i32, ptr %4, align 4
  ret i32 %91
}