; Function Attrs: mustprogress uwtable
define hidden range(i32 -20864, 1) i32 @mbedtls_md_setup(ptr noundef %0, ptr noundef %1, i32 noundef %2) local_unnamed_addr #5 {
  %4 = icmp eq ptr %1, null
  %5 = icmp eq ptr %0, null
  %or.cond = or i1 %5, %4
  br i1 %or.cond, label %31, label %6

6:                                                ; preds = %3
  store ptr %1, ptr %0, align 8, !tbaa !3
  %7 = getelementptr inbounds nuw i8, ptr %0, i64 8
  %8 = getelementptr inbounds nuw i8, ptr %0, i64 16
  %9 = getelementptr inbounds nuw i8, ptr %1, i64 8
  tail call void @llvm.memset.p0.i64(ptr noundef nonnull align 8 dereferenceable(16) %7, i8 0, i64 16, i1 false)
  %10 = load i32, ptr %9, align 8, !tbaa !10
  switch i32 %10, label %31 [
    i32 2, label %11
    i32 3, label %15
    i32 4, label %19
  ]

11:                                               ; preds = %6
  %12 = tail call noalias dereferenceable_or_null(92) ptr @calloc(i64 noundef 1, i64 noundef 92) #13
  store ptr %12, ptr %7, align 8, !tbaa !9
  %13 = icmp eq ptr %12, null
  br i1 %13, label %31, label %14

14:                                               ; preds = %11
  tail call void @mbedtls_sha1_init(ptr noundef nonnull %12)
  br label %23

15:                                               ; preds = %6
  %16 = tail call noalias dereferenceable_or_null(108) ptr @calloc(i64 noundef 1, i64 noundef 108) #13
  store ptr %16, ptr %7, align 8, !tbaa !9
  %17 = icmp eq ptr %16, null
  br i1 %17, label %31, label %18

18:                                               ; preds = %15
  tail call void @mbedtls_sha256_init(ptr noundef nonnull %16)
  br label %23

19:                                               ; preds = %6
  %20 = tail call noalias dereferenceable_or_null(108) ptr @calloc(i64 noundef 1, i64 noundef 108) #13
  store ptr %20, ptr %7, align 8, !tbaa !9
  %21 = icmp eq ptr %20, null
  br i1 %21, label %31, label %22

22:                                               ; preds = %19
  tail call void @mbedtls_sha256_init(ptr noundef nonnull %20)
  br label %23

23:                                               ; preds = %22, %18, %14
  %.not = icmp eq i32 %2, 0
  br i1 %.not, label %31, label %24

24:                                               ; preds = %23
  %25 = getelementptr inbounds nuw i8, ptr %1, i64 13
  %26 = load i8, ptr %25, align 1, !tbaa !15
  %27 = zext i8 %26 to i64
  %28 = tail call noalias ptr @calloc(i64 noundef 2, i64 noundef %27) #13
  store ptr %28, ptr %8, align 8, !tbaa !14
  %29 = icmp eq ptr %28, null
  br i1 %29, label %30, label %31

30:                                               ; preds = %24
  tail call void @mbedtls_md_free(ptr noundef nonnull %0)
  br label %31

31:                                               ; preds = %23, %24, %6, %19, %15, %11, %3, %30
  %.0 = phi i32 [ -20864, %30 ], [ -20736, %3 ], [ -20864, %11 ], [ -20864, %15 ], [ -20864, %19 ], [ -20736, %6 ], [ 0, %24 ], [ 0, %23 ]
  ret i32 %.0
}